target datalayout = "e-m:e-p270:32:32-p271:32:32-p272:64:64-i64:64-i128:128-f80:128-n8:16:32:64-S128"
target triple = "x86_64-unknown-linux-gnu"

%class.mpz = type { i32, i8, ptr }
%class.svector = type { %class.vector }
%class.vector = type { ptr }
%"class.polynomial::manager" = type { ptr }
%"struct.polynomial::manager::imp" = type { ptr, ptr, %class.mpzzp_manager, %"class.upolynomial::manager", ptr, %class.ptr_vector, %class.id_gen, ptr, ptr, %class.mpz, ptr, %"class.polynomial::monomial2pos", %"class.polynomial::tmp_monomial", %class.svector.1, %class.svector.1, %class.ptr_vector.4, %class.svector, i8, i8, %"class.polynomial::manager::imp::som_buffer", %"class.polynomial::manager::imp::som_buffer", %"class.polynomial::manager::imp::cheap_som_buffer", %"class.polynomial::manager::imp::cheap_som_buffer", %class.vector.6, %class.svector, %class.svector.7, %class.svector, %"class.polynomial::manager::imp::som_buffer_vector", %"class.polynomial::manager::imp::newton_interpolator_vector", %class.scoped_ptr_vector, %"class.polynomial::manager::imp::var_max_degree", %"struct.polynomial::manager::imp::var_pos", %"class.polynomial::manager::imp::som_buffer_vector" }
%class.mpzzp_manager = type { ptr, i8, %class.mpz, %class.mpz, %class.mpz, i8, %class.mpz, %class.mpz, %class.mpz, %class.mpz }
%"class.upolynomial::manager" = type { %"class.upolynomial::core_manager", %class.svector.1, %class.svector.1, %class.svector.1, %class.svector.1, %class.svector.1 }
%"class.upolynomial::core_manager" = type { ptr, %class.mpzzp_manager, %class.svector.1, %class.svector.1, %class.svector.1, %class.svector.1, %class.svector.1, %class.svector.1, %class.svector.1, [6 x %class.svector.1], %class.svector.1, %class.svector.1, %class.svector.1 }
%class.ptr_vector = type { %class.vector.3 }
%class.vector.3 = type { ptr }
%class.id_gen = type { i32, %class.svector }
%"class.polynomial::monomial2pos" = type { %class.svector }
%"class.polynomial::tmp_monomial" = type <{ ptr, i32, [4 x i8] }>
%class.svector.1 = type { %class.vector.2 }
%class.vector.2 = type { ptr }
%class.ptr_vector.4 = type { %class.vector.5 }
%class.vector.5 = type { ptr }
%"class.polynomial::manager::imp::som_buffer" = type { ptr, %"class.polynomial::monomial2pos", %class.svector.1, %class.ptr_vector.4 }
%"class.polynomial::manager::imp::cheap_som_buffer" = type { ptr, %class.svector.1, %class.ptr_vector.4 }
%class.vector.6 = type { ptr }
%class.svector.7 = type { %class.vector.8 }
%class.vector.8 = type { ptr }
%"class.polynomial::manager::imp::newton_interpolator_vector" = type { ptr, %class.ptr_vector.11 }
%class.ptr_vector.11 = type { %class.vector.12 }
%class.vector.12 = type { ptr }
%class.scoped_ptr_vector = type { %class.ptr_vector.13 }
%class.ptr_vector.13 = type { %class.vector.14 }
%class.vector.14 = type { ptr }
%"class.polynomial::manager::imp::var_max_degree" = type { %class.svector, %class.svector }
%"struct.polynomial::manager::imp::var_pos" = type { %class.svector }
%"class.polynomial::manager::imp::som_buffer_vector" = type { ptr, %class.ptr_vector.9 }
%class.ptr_vector.9 = type { %class.vector.10 }
%class.vector.10 = type { ptr }
%"class.polynomial::monomial_manager" = type { i32, ptr, i8, %class.chashtable, %class.id_gen, i32, ptr, %"class.polynomial::tmp_monomial", %"class.polynomial::tmp_monomial", %"class.polynomial::tmp_monomial", %"class.polynomial::tmp_monomial", %class.svector.19 }
%class.chashtable = type { ptr, i32, i32, i32, i32, i32, i32, i32, ptr, ptr, ptr }
%class.svector.19 = type { %class.vector.20 }
%class.vector.20 = type { ptr }

; Function Attrs: mustprogress nounwind uwtable
define linkonce_odr hidden noundef ptr @_ZN10polynomial16monomial_manager7mk_unitEv(ptr noundef nonnull align 8 dereferenceable(192) %this) #4 comdat align 2 {
entry:
  %this.addr = alloca ptr, align 8
  store ptr %this, ptr %this.addr, align 8
  %this1 = load ptr, ptr %this.addr, align 8
  %m_unit = getelementptr inbounds %"class.polynomial::monomial_manager", ptr %this1, i32 0, i32 6
  %0 = load ptr, ptr %m_unit, align 8
  ret ptr %0
}

; Function Attrs: mustprogress nounwind uwtable
define linkonce_odr hidden noundef nonnull align 8 dereferenceable(192) ptr @_ZNK10polynomial7manager3imp2mmEv(ptr noundef nonnull align 8 dereferenceable(824) %this) #4 comdat align 2 {
entry:
  %this.addr = alloca ptr, align 8
  store ptr %this, ptr %this.addr, align 8
  %this1 = load ptr, ptr %this.addr, align 8
  %m_monomial_manager = getelementptr inbounds %"struct.polynomial::manager::imp", ptr %this1, i32 0, i32 4
  %0 = load ptr, ptr %m_monomial_manager, align 8
  ret ptr %0
}

; Function Attrs: mustprogress uwtable
define linkonce_odr hidden noundef ptr @_ZN10polynomial7manager3imp7mk_unitEv(ptr noundef nonnull align 8 dereferenceable(824) %this) #5 comdat align 2 {
entry:
  %this.addr = alloca ptr, align 8
  store ptr %this, ptr %this.addr, align 8
  %this1 = load ptr, ptr %this.addr, align 8
  %call = call noundef nonnull align 8 dereferenceable(192) ptr @_ZNK10polynomial7manager3imp2mmEv(ptr noundef nonnull align 8 dereferenceable(824) %this1)
  %call2 = call noundef ptr @_ZN10polynomial16monomial_manager7mk_unitEv(ptr noundef nonnull align 8 dereferenceable(192) %call)
  ret ptr %call2
}

; Function Attrs: mustprogress nounwind uwtable
define linkonce_odr hidden void @_ZN3mpzC2Ei(ptr noundef nonnull align 8 dereferenceable(16) %this, i32 noundef %v) unnamed_addr #4 comdat align 2 {
entry:
  %this.addr = alloca ptr, align 8
  %v.addr = alloca i32, align 4
  store ptr %this, ptr %this.addr, align 8
  store i32 %v, ptr %v.addr, align 4
  %this1 = load ptr, ptr %this.addr, align 8
  %m_val = getelementptr inbounds %class.mpz, ptr %this1, i32 0, i32 0
  %0 = load i32, ptr %v.addr, align 4
  store i32 %0, ptr %m_val, align 8
  %m_kind = getelementptr inbounds %class.mpz, ptr %this1, i32 0, i32 1
  %bf.load = load i8, ptr %m_kind, align 4
  %bf.clear = and i8 %bf.load, -2
  %bf.set = or i8 %bf.clear, 0
  store i8 %bf.set, ptr %m_kind, align 4
  %m_owner = getelementptr inbounds %class.mpz, ptr %this1, i32 0, i32 1
  %bf.load2 = load i8, ptr %m_owner, align 4
  %bf.clear3 = and i8 %bf.load2, -3
  %bf.set4 = or i8 %bf.clear3, 0
  store i8 %bf.set4, ptr %m_owner, align 4
  %m_ptr = getelementptr inbounds %class.mpz, ptr %this1, i32 0, i32 2
  store ptr null, ptr %m_ptr, align 8
  ret void
}

; Function Attrs: mustprogress uwtable
define linkonce_odr hidden noundef ptr @_ZN10polynomial7manager3imp3addEPKNS_10polynomialES4_(ptr noundef nonnull align 8 dereferenceable(824) %this, ptr noundef %p1, ptr noundef %p2) #5 comdat align 2 {
entry:
  %this.addr = alloca ptr, align 8
  %p1.addr = alloca ptr, align 8
  %p2.addr = alloca ptr, align 8
  %one = alloca %class.mpz, align 8
  store ptr %this, ptr %this.addr, align 8
  store ptr %p1, ptr %p1.addr, align 8
  store ptr %p2, ptr %p2.addr, align 8
  %this1 = load ptr, ptr %this.addr, align 8
  call void @_ZN3mpzC2Ei(ptr noundef nonnull align 8 dereferenceable(16) %one, i32 noundef 1)
  %call = call noundef ptr @_ZN10polynomial7manager3imp7mk_unitEv(ptr noundef nonnull align 8 dereferenceable(824) %this1)
  %0 = load ptr, ptr %p1.addr, align 8
  %call2 = call noundef ptr @_ZN10polynomial7manager3imp7mk_unitEv(ptr noundef nonnull align 8 dereferenceable(824) %this1)
  %1 = load ptr, ptr %p2.addr, align 8
  %call3 = call noundef ptr @_ZN10polynomial7manager3imp6addmulERK3mpzPKNS_8monomialEPKNS_10polynomialES4_S7_SA_(ptr noundef nonnull align 8 dereferenceable(824) %this1, ptr noundef nonnull align 8 dereferenceable(16) %one, ptr noundef %call, ptr noundef %0, ptr noundef nonnull align 8 dereferenceable(16) %one, ptr noundef %call2, ptr noundef %1)
  ret ptr %call3
}

; Function Attrs: mustprogress uwtable
define hidden noundef ptr @_ZN10polynomial7manager3addEPKNS_10polynomialES3_(ptr noundef nonnull align 8 dereferenceable(8) %this, ptr noundef %p1, ptr noundef %p2) #5 align 2 {
entry:
  %this.addr = alloca ptr, align 8
  %p1.addr = alloca ptr, align 8
  %p2.addr = alloca ptr, align 8
  store ptr %this, ptr %this.addr, align 8
  store ptr %p1, ptr %p1.addr, align 8
  store ptr %p2, ptr %p2.addr, align 8
  %this1 = load ptr, ptr %this.addr, align 8
  %m_imp = getelementptr inbounds %"class.polynomial::manager", ptr %this1, i32 0, i32 0
  %0 = load ptr, ptr %m_imp, align 8
  %1 = load ptr, ptr %p1.addr, align 8
  %2 = load ptr, ptr %p2.addr, align 8
  %call = call noundef ptr @_ZN10polynomial7manager3imp3addEPKNS_10polynomialES4_(ptr noundef nonnull align 8 dereferenceable(824) %0, ptr noundef %1, ptr noundef %2)
  ret ptr %call
}