; Function Attrs: mustprogress uwtable
define hidden noundef ptr @_ZN10polynomial7manager3addEPKNS_10polynomialES3_(ptr nocapture noundef nonnull readonly align 8 dereferenceable(8) %this, ptr noundef %p1, ptr noundef %p2) local_unnamed_addr #4 align 2 {
entry:
  %one.i = alloca %class.mpz, align 8
  %0 = load ptr, ptr %this, align 8
  call void @llvm.lifetime.start.p0(i64 16, ptr nonnull %one.i)
  store i32 1, ptr %one.i, align 8
  %m_kind.i.i = getelementptr inbounds i8, ptr %one.i, i64 4
  store i8 0, ptr %m_kind.i.i, align 4
  %m_ptr.i.i = getelementptr inbounds i8, ptr %one.i, i64 8
  store ptr null, ptr %m_ptr.i.i, align 8
  %m_monomial_manager.i.i.i = getelementptr inbounds i8, ptr %0, i64 464
  %1 = load ptr, ptr %m_monomial_manager.i.i.i, align 8
  %m_unit.i.i.i = getelementptr inbounds i8, ptr %1, i64 112
  %2 = load ptr, ptr %m_unit.i.i.i, align 8
  %call3.i = call noundef ptr @_ZN10polynomial7manager3imp6addmulERK3mpzPKNS_8monomialEPKNS_10polynomialES4_S7_SA_(ptr noundef nonnull align 8 dereferenceable(824) %0, ptr noundef nonnull align 8 dereferenceable(16) %one.i, ptr noundef %2, ptr noundef %p1, ptr noundef nonnull align 8 dereferenceable(16) %one.i, ptr noundef %2, ptr noundef %p2)
  call void @llvm.lifetime.end.p0(i64 16, ptr nonnull %one.i)
  ret ptr %call3.i
}